; Function Attrs: mustprogress uwtable
define internal noundef float @_ZN32pxrInternal_v0_24__pxrReserved__12_GLOBAL__N_130_ScalingTypedSampledDataSourceIfE13GetTypedValueEf(ptr nocapture noundef nonnull readonly align 8 dereferenceable(28) %0, float noundef %1) unnamed_addr #0 align 2 {
  %3 = getelementptr inbounds nuw i8, ptr %0, i64 8
  %4 = load ptr, ptr %3, align 8
  %.not = icmp eq ptr %4, null
  br i1 %.not, label %13, label %5

5:                                                ; preds = %2
  %6 = load ptr, ptr %4, align 8
  %7 = getelementptr inbounds i8, ptr %6, i64 32
  %8 = load ptr, ptr %7, align 8
  %9 = tail call noundef float %8(ptr noundef nonnull align 8 dereferenceable(8) %4, float noundef %1)
  %10 = getelementptr inbounds nuw i8, ptr %0, i64 24
  %11 = load float, ptr %10, align 8
  %12 = fmul float %9, %11
  br label %13

13:                                               ; preds = %2, %5
  %.0 = phi float [ %12, %5 ], [ 0.000000e+00, %2 ]
  ret float %.0
}